; ModuleID = 'probe3.0e24f8fd-cgu.0'
source_filename = "probe3.0e24f8fd-cgu.0"
target datalayout = "e-m:e-p:32:32-i64:64-n32-S128"
target triple = "riscv32"

; core::f64::<impl f64>::to_int_unchecked
; Function Attrs: inlinehint nounwind
define dso_local i32 @"_ZN4core3f6421_$LT$impl$u20$f64$GT$16to_int_unchecked17h1c6c6282c1cf002dE"(double %self) unnamed_addr #0 {
start:
; call <f64 as core::convert::num::FloatToInt<i32>>::to_int_unchecked
  %0 = call i32 @"_ZN65_$LT$f64$u20$as$u20$core..convert..num..FloatToInt$LT$i32$GT$$GT$16to_int_unchecked17hd44ad0568d05eef5E"(double %self) #2
  ret i32 %0
}

; <f64 as core::convert::num::FloatToInt<i32>>::to_int_unchecked
; Function Attrs: inlinehint nounwind
define internal i32 @"_ZN65_$LT$f64$u20$as$u20$core..convert..num..FloatToInt$LT$i32$GT$$GT$16to_int_unchecked17hd44ad0568d05eef5E"(double %self) unnamed_addr #0 {
start:
  %0 = alloca i32, align 4
  %1 = fptosi double %self to i32
  store i32 %1, ptr %0, align 4
  %2 = load i32, ptr %0, align 4, !noundef !0
  ret i32 %2
}

; probe3::probe
; Function Attrs: nounwind
define dso_local void @_ZN6probe35probe17h3abcb0726cc9ffbfE() unnamed_addr #1 {
start:
; call core::f64::<impl f64>::to_int_unchecked
  %_1 = call i32 @"_ZN4core3f6421_$LT$impl$u20$f64$GT$16to_int_unchecked17h1c6c6282c1cf002dE"(double 1.000000e+00) #2
  ret void
}

attributes #0 = { inlinehint nounwind "frame-pointer"="all" "target-cpu"="generic-rv32" "target-features"="+m,+a,+c,+a" }
attributes #1 = { nounwind "frame-pointer"="all" "target-cpu"="generic-rv32" "target-features"="+m,+a,+c,+a" }
attributes #2 = { nounwind }

!0 = !{}
